; ModuleID = 'source-C-CXX/27/182.c'
source_filename = "source-C-CXX/27/182.c"
target datalayout = "e-m:e-p270:32:32-p271:32:32-p272:64:64-i64:64-f80:128-n8:16:32:64-S128"
target triple = "x86_64-pc-linux-gnu"

@.str = private unnamed_addr constant [3 x i8] c"%d\00", align 1
@.str.1 = private unnamed_addr constant [4 x i8] c",%d\00", align 1

; Function Attrs: nounwind sspstrong uwtable
define dso_local void @main() local_unnamed_addr #0 {
  %1 = alloca [1000 x i8], align 16
  %2 = getelementptr inbounds [1000 x i8], [1000 x i8]* %1, i64 0, i64 0
  call void @llvm.lifetime.start.p0i8(i64 1000, i8* nonnull %2) #5
  call void @llvm.memset.p0i8.i64(i8* noundef nonnull align 16 dereferenceable(1000) %2, i8 0, i64 1000, i1 false)
  %3 = call i32 (i8*, ...) bitcast (i32 (...)* @gets to i32 (i8*, ...)*)(i8* nonnull %2) #5
  br label %4

4:                                                ; preds = %27, %0
  %5 = phi i64 [ %30, %27 ], [ 0, %0 ]
  %6 = phi i32 [ %28, %27 ], [ 0, %0 ]
  %7 = phi i32 [ %29, %27 ], [ 0, %0 ]
  %8 = getelementptr inbounds [1000 x i8], [1000 x i8]* %1, i64 0, i64 %5
  %9 = load i8, i8* %8, align 1, !tbaa !5
  switch i8 %9, label %15 [
    i8 0, label %10
    i8 32, label %18
  ]

10:                                               ; preds = %4
  %11 = add nsw i64 %5, -1
  %12 = getelementptr inbounds [1000 x i8], [1000 x i8]* %1, i64 0, i64 %11
  %13 = load i8, i8* %12, align 1, !tbaa !5
  %14 = icmp eq i8 %13, 0
  br i1 %14, label %31, label %22

15:                                               ; preds = %4
  %16 = add nsw i32 %7, 1
  %17 = icmp eq i32 %16, 0
  br i1 %17, label %27, label %20

18:                                               ; preds = %4
  %19 = icmp eq i32 %7, 0
  br i1 %19, label %27, label %22

20:                                               ; preds = %15
  %21 = icmp eq i8 %9, 32
  br i1 %21, label %22, label %27

22:                                               ; preds = %18, %10, %20
  %23 = phi i32 [ %16, %20 ], [ %7, %10 ], [ %7, %18 ]
  %24 = icmp eq i32 %6, 0
  %25 = select i1 %24, i8* getelementptr inbounds ([3 x i8], [3 x i8]* @.str, i64 0, i64 0), i8* getelementptr inbounds ([4 x i8], [4 x i8]* @.str.1, i64 0, i64 0)
  %26 = call i32 (i8*, ...) @printf(i8* nonnull dereferenceable(1) %25, i32 %23)
  br label %27

27:                                               ; preds = %22, %18, %15, %20
  %28 = phi i32 [ %6, %20 ], [ %6, %15 ], [ %6, %18 ], [ 1, %22 ]
  %29 = phi i32 [ %16, %20 ], [ 0, %15 ], [ 0, %18 ], [ 0, %22 ]
  %30 = add nuw i64 %5, 1
  br label %4, !llvm.loop !8

31:                                               ; preds = %10
  call void @llvm.lifetime.end.p0i8(i64 1000, i8* nonnull %2) #5
  ret void
}

; Function Attrs: argmemonly mustprogress nofree nosync nounwind willreturn
declare void @llvm.lifetime.start.p0i8(i64 immarg, i8* nocapture) #1

; Function Attrs: argmemonly mustprogress nofree nounwind willreturn writeonly
declare void @llvm.memset.p0i8.i64(i8* nocapture writeonly, i8, i64, i1 immarg) #2

declare i32 @gets(...) local_unnamed_addr #3

; Function Attrs: nofree nounwind
declare noundef i32 @printf(i8* nocapture noundef readonly, ...) local_unnamed_addr #4

; Function Attrs: argmemonly mustprogress nofree nosync nounwind willreturn
declare void @llvm.lifetime.end.p0i8(i64 immarg, i8* nocapture) #1


!llvm.module.flags = !{!0, !1, !2, !3}
!llvm.ident = !{!4}

!0 = !{i32 1, !"wchar_size", i32 4}
!1 = !{i32 7, !"PIC Level", i32 2}
!2 = !{i32 7, !"PIE Level", i32 2}
!3 = !{i32 7, !"uwtable", i32 1}
!4 = !{!"clang version 13.0.0"}
!5 = !{!6, !6, i64 0}
!6 = !{!"omnipotent char", !7, i64 0}
!7 = !{!"Simple C/C++ TBAA"}
!8 = distinct !{!8, !9}
!9 = !{!"llvm.loop.mustprogress"}
